target datalayout = "e-m:e-p270:32:32-p271:32:32-p272:64:64-i64:64-i128:128-f80:128-n8:16:32:64-S128"
target triple = "x86_64-pc-linux-gnu"

%struct.lua_TValue = type { %union.Value, [1 x i32], i32 }
%union.Value = type { ptr }
%struct.TString = type { i8, i8, i8, i16, ptr, i32, i32, [1 x i8] }
%struct.LuaTable = type { i8, i8, i8, i8, i8, i8, i8, i8, i32, %union.anon.2, ptr, ptr, ptr, ptr }
%union.anon.2 = type { i32 }
%struct.lua_State = type { i8, i8, i8, i8, i8, i8, i8, ptr, ptr, ptr, ptr, ptr, ptr, ptr, ptr, i32, i32, i16, i16, i32, ptr, ptr, ptr, ptr, ptr }
%struct.global_State = type { %struct.stringtable, ptr, ptr, i8, i8, ptr, ptr, ptr, i64, i64, i32, i32, i32, [40 x ptr], [40 x ptr], ptr, ptr, ptr, [256 x i64], ptr, %struct.UpVal, [11 x ptr], [11 x ptr], [21 x ptr], %struct.lua_TValue, %struct.lua_TValue, i32, ptr, i64, [4 x i64], %struct.lua_Callbacks, %struct.lua_ExecutionCallbacks, [128 x ptr], [128 x ptr], [128 x ptr], %struct.GCStats }
%struct.stringtable = type { ptr, i32, i32 }
%struct.UpVal = type { i8, i8, i8, i8, ptr, %union.anon.3 }
%union.anon.3 = type { %struct.anon.4 }
%struct.anon.4 = type { ptr, ptr, ptr }
%struct.lua_Callbacks = type { ptr, ptr, ptr, ptr, ptr, ptr, ptr, ptr, ptr, ptr }
%struct.lua_ExecutionCallbacks = type { ptr, ptr, ptr, ptr, ptr, ptr, ptr }
%struct.GCStats = type { [32 x i32], i32, i32, i64, i64, i64, double, double, double }

@luaO_nilobject_ = external hidden global %struct.lua_TValue, align 8
@.str.3 = private unnamed_addr constant [14 x i8] c"get length of\00", align 1
@.str.4 = private unnamed_addr constant [29 x i8] c"'__len' must return a number\00", align 1

; Function Attrs: mustprogress uwtable
define internal noundef ptr @_ZL9callTMresP9lua_StateP10lua_TValuePKS1_S4_S4_(ptr noundef %0, ptr noundef %1, ptr noundef %2, ptr noundef %3, ptr noundef %4) #0 {
  %6 = alloca ptr, align 8
  %7 = alloca ptr, align 8
  %8 = alloca ptr, align 8
  %9 = alloca ptr, align 8
  %10 = alloca ptr, align 8
  %11 = alloca i64, align 8
  %12 = alloca ptr, align 8
  %13 = alloca ptr, align 8
  %14 = alloca ptr, align 8
  %15 = alloca ptr, align 8
  %16 = alloca ptr, align 8
  %17 = alloca ptr, align 8
  %18 = alloca ptr, align 8
  %19 = alloca ptr, align 8
  store ptr %0, ptr %6, align 8, !tbaa !15
  store ptr %1, ptr %7, align 8, !tbaa !4
  store ptr %2, ptr %8, align 8, !tbaa !4
  store ptr %3, ptr %9, align 8, !tbaa !4
  store ptr %4, ptr %10, align 8, !tbaa !4
  call void @llvm.lifetime.start.p0(i64 8, ptr %11) #11
  %20 = load ptr, ptr %7, align 8, !tbaa !4
  %21 = load ptr, ptr %6, align 8, !tbaa !15
  %22 = getelementptr inbounds nuw %struct.lua_State, ptr %21, i32 0, i32 12
  %23 = load ptr, ptr %22, align 8, !tbaa !41
  %24 = ptrtoint ptr %20 to i64
  %25 = ptrtoint ptr %23 to i64
  %26 = sub i64 %24, %25
  store i64 %26, ptr %11, align 8, !tbaa !42
  call void @llvm.lifetime.start.p0(i64 8, ptr %12) #11
  %27 = load ptr, ptr %8, align 8, !tbaa !4
  store ptr %27, ptr %12, align 8, !tbaa !4
  call void @llvm.lifetime.start.p0(i64 8, ptr %13) #11
  %28 = load ptr, ptr %6, align 8, !tbaa !15
  %29 = getelementptr inbounds nuw %struct.lua_State, ptr %28, i32 0, i32 7
  %30 = load ptr, ptr %29, align 8, !tbaa !44
  store ptr %30, ptr %13, align 8, !tbaa !4
  %31 = load ptr, ptr %12, align 8, !tbaa !4
  %32 = load ptr, ptr %13, align 8, !tbaa !4
  call void @llvm.memcpy.p0.p0.i64(ptr align 8 %32, ptr align 8 %31, i64 16, i1 false), !tbaa.struct !38
  call void @llvm.lifetime.end.p0(i64 8, ptr %13) #11
  call void @llvm.lifetime.end.p0(i64 8, ptr %12) #11
  call void @llvm.lifetime.start.p0(i64 8, ptr %14) #11
  %33 = load ptr, ptr %9, align 8, !tbaa !4
  store ptr %33, ptr %14, align 8, !tbaa !4
  call void @llvm.lifetime.start.p0(i64 8, ptr %15) #11
  %34 = load ptr, ptr %6, align 8, !tbaa !15
  %35 = getelementptr inbounds nuw %struct.lua_State, ptr %34, i32 0, i32 7
  %36 = load ptr, ptr %35, align 8, !tbaa !44
  %37 = getelementptr inbounds %struct.lua_TValue, ptr %36, i64 1
  store ptr %37, ptr %15, align 8, !tbaa !4
  %38 = load ptr, ptr %14, align 8, !tbaa !4
  %39 = load ptr, ptr %15, align 8, !tbaa !4
  call void @llvm.memcpy.p0.p0.i64(ptr align 8 %39, ptr align 8 %38, i64 16, i1 false), !tbaa.struct !38
  call void @llvm.lifetime.end.p0(i64 8, ptr %15) #11
  call void @llvm.lifetime.end.p0(i64 8, ptr %14) #11
  call void @llvm.lifetime.start.p0(i64 8, ptr %16) #11
  %40 = load ptr, ptr %10, align 8, !tbaa !4
  store ptr %40, ptr %16, align 8, !tbaa !4
  call void @llvm.lifetime.start.p0(i64 8, ptr %17) #11
  %41 = load ptr, ptr %6, align 8, !tbaa !15
  %42 = getelementptr inbounds nuw %struct.lua_State, ptr %41, i32 0, i32 7
  %43 = load ptr, ptr %42, align 8, !tbaa !44
  %44 = getelementptr inbounds %struct.lua_TValue, ptr %43, i64 2
  store ptr %44, ptr %17, align 8, !tbaa !4
  %45 = load ptr, ptr %16, align 8, !tbaa !4
  %46 = load ptr, ptr %17, align 8, !tbaa !4
  call void @llvm.memcpy.p0.p0.i64(ptr align 8 %46, ptr align 8 %45, i64 16, i1 false), !tbaa.struct !38
  call void @llvm.lifetime.end.p0(i64 8, ptr %17) #11
  call void @llvm.lifetime.end.p0(i64 8, ptr %16) #11
  %47 = load ptr, ptr %6, align 8, !tbaa !15
  %48 = getelementptr inbounds nuw %struct.lua_State, ptr %47, i32 0, i32 11
  %49 = load ptr, ptr %48, align 8, !tbaa !45
  %50 = load ptr, ptr %6, align 8, !tbaa !15
  %51 = getelementptr inbounds nuw %struct.lua_State, ptr %50, i32 0, i32 7
  %52 = load ptr, ptr %51, align 8, !tbaa !44
  %53 = ptrtoint ptr %49 to i64
  %54 = ptrtoint ptr %52 to i64
  %55 = sub i64 %53, %54
  %56 = icmp sle i64 %55, 48
  br i1 %56, label %57, label %59

57:                                               ; preds = %5
  %58 = load ptr, ptr %6, align 8, !tbaa !15
  call void @_Z14luaD_growstackP9lua_Statei(ptr noundef %58, i32 noundef 3)
  br label %60

59:                                               ; preds = %5
  br label %60

60:                                               ; preds = %59, %57
  %61 = load ptr, ptr %6, align 8, !tbaa !15
  %62 = getelementptr inbounds nuw %struct.lua_State, ptr %61, i32 0, i32 7
  %63 = load ptr, ptr %62, align 8, !tbaa !44
  %64 = getelementptr inbounds %struct.lua_TValue, ptr %63, i64 3
  store ptr %64, ptr %62, align 8, !tbaa !44
  %65 = load ptr, ptr %6, align 8, !tbaa !15
  %66 = load ptr, ptr %6, align 8, !tbaa !15
  %67 = getelementptr inbounds nuw %struct.lua_State, ptr %66, i32 0, i32 7
  %68 = load ptr, ptr %67, align 8, !tbaa !44
  %69 = getelementptr inbounds %struct.lua_TValue, ptr %68, i64 -3
  call void @_Z9luaD_callP9lua_StateP10lua_TValuei(ptr noundef %65, ptr noundef %69, i32 noundef 1)
  %70 = load ptr, ptr %6, align 8, !tbaa !15
  %71 = getelementptr inbounds nuw %struct.lua_State, ptr %70, i32 0, i32 12
  %72 = load ptr, ptr %71, align 8, !tbaa !41
  %73 = load i64, ptr %11, align 8, !tbaa !42
  %74 = getelementptr inbounds i8, ptr %72, i64 %73
  store ptr %74, ptr %7, align 8, !tbaa !4
  %75 = load ptr, ptr %6, align 8, !tbaa !15
  %76 = getelementptr inbounds nuw %struct.lua_State, ptr %75, i32 0, i32 7
  %77 = load ptr, ptr %76, align 8, !tbaa !44
  %78 = getelementptr inbounds %struct.lua_TValue, ptr %77, i32 -1
  store ptr %78, ptr %76, align 8, !tbaa !44
  call void @llvm.lifetime.start.p0(i64 8, ptr %18) #11
  %79 = load ptr, ptr %6, align 8, !tbaa !15
  %80 = getelementptr inbounds nuw %struct.lua_State, ptr %79, i32 0, i32 7
  %81 = load ptr, ptr %80, align 8, !tbaa !44
  store ptr %81, ptr %18, align 8, !tbaa !4
  call void @llvm.lifetime.start.p0(i64 8, ptr %19) #11
  %82 = load ptr, ptr %7, align 8, !tbaa !4
  store ptr %82, ptr %19, align 8, !tbaa !4
  %83 = load ptr, ptr %18, align 8, !tbaa !4
  %84 = load ptr, ptr %19, align 8, !tbaa !4
  call void @llvm.memcpy.p0.p0.i64(ptr align 8 %84, ptr align 8 %83, i64 16, i1 false), !tbaa.struct !38
  call void @llvm.lifetime.end.p0(i64 8, ptr %19) #11
  call void @llvm.lifetime.end.p0(i64 8, ptr %18) #11
  %85 = load ptr, ptr %7, align 8, !tbaa !4
  call void @llvm.lifetime.end.p0(i64 8, ptr %11) #11
  ret ptr %85
}

; Function Attrs: mustprogress uwtable
define hidden void @_Z10luaV_dolenP9lua_StateP10lua_TValuePKS1_(ptr noundef %0, ptr noundef %1, ptr noundef %2) #0 {
  %4 = alloca ptr, align 8
  %5 = alloca ptr, align 8
  %6 = alloca ptr, align 8
  %7 = alloca ptr, align 8
  %8 = alloca ptr, align 8
  %9 = alloca ptr, align 8
  %10 = alloca i32, align 4
  %11 = alloca ptr, align 8
  %12 = alloca ptr, align 8
  %13 = alloca ptr, align 8
  store ptr %0, ptr %4, align 8, !tbaa !15
  store ptr %1, ptr %5, align 8, !tbaa !4
  store ptr %2, ptr %6, align 8, !tbaa !4
  call void @llvm.lifetime.start.p0(i64 8, ptr %7) #11
  store ptr null, ptr %7, align 8, !tbaa !4
  %14 = load ptr, ptr %6, align 8, !tbaa !4
  %15 = getelementptr inbounds nuw %struct.lua_TValue, ptr %14, i32 0, i32 2
  %16 = load i32, ptr %15, align 4, !tbaa !9
  switch i32 %16, label %77 [
    i32 6, label %17
    i32 5, label %64
  ]

17:                                               ; preds = %3
  call void @llvm.lifetime.start.p0(i64 8, ptr %8) #11
  %18 = load ptr, ptr %6, align 8, !tbaa !4
  %19 = getelementptr inbounds nuw %struct.lua_TValue, ptr %18, i32 0, i32 0
  %20 = load ptr, ptr %19, align 8, !tbaa !12
  store ptr %20, ptr %8, align 8, !tbaa !20
  %21 = load ptr, ptr %8, align 8, !tbaa !20
  %22 = getelementptr inbounds nuw %struct.LuaTable, ptr %21, i32 0, i32 10
  %23 = load ptr, ptr %22, align 8, !tbaa !34
  %24 = icmp eq ptr %23, null
  br i1 %24, label %25, label %26

25:                                               ; preds = %17
  br label %49

26:                                               ; preds = %17
  %27 = load ptr, ptr %8, align 8, !tbaa !20
  %28 = getelementptr inbounds nuw %struct.LuaTable, ptr %27, i32 0, i32 10
  %29 = load ptr, ptr %28, align 8, !tbaa !34
  %30 = getelementptr inbounds nuw %struct.LuaTable, ptr %29, i32 0, i32 3
  %31 = load i8, ptr %30, align 1, !tbaa !35
  %32 = zext i8 %31 to i32
  %33 = and i32 %32, 64
  %34 = icmp ne i32 %33, 0
  br i1 %34, label %35, label %36

35:                                               ; preds = %26
  br label %47

36:                                               ; preds = %26
  %37 = load ptr, ptr %8, align 8, !tbaa !20
  %38 = getelementptr inbounds nuw %struct.LuaTable, ptr %37, i32 0, i32 10
  %39 = load ptr, ptr %38, align 8, !tbaa !34
  %40 = load ptr, ptr %4, align 8, !tbaa !15
  %41 = getelementptr inbounds nuw %struct.lua_State, ptr %40, i32 0, i32 9
  %42 = load ptr, ptr %41, align 8, !tbaa !36
  %43 = getelementptr inbounds nuw %struct.global_State, ptr %42, i32 0, i32 23
  %44 = getelementptr inbounds nuw [21 x ptr], ptr %43, i64 0, i64 6
  %45 = load ptr, ptr %44, align 8, !tbaa !37
  %46 = call noundef ptr @_Z10luaT_gettmP8LuaTable3TMSP7TString(ptr noundef %39, i32 noundef 6, ptr noundef %45)
  br label %47

47:                                               ; preds = %36, %35
  %48 = phi ptr [ null, %35 ], [ %46, %36 ]
  br label %49

49:                                               ; preds = %47, %25
  %50 = phi ptr [ null, %25 ], [ %48, %47 ]
  store ptr %50, ptr %7, align 8, !tbaa !4
  %51 = icmp eq ptr %50, null
  br i1 %51, label %52, label %61

52:                                               ; preds = %49
  call void @llvm.lifetime.start.p0(i64 8, ptr %9) #11
  %53 = load ptr, ptr %5, align 8, !tbaa !4
  store ptr %53, ptr %9, align 8, !tbaa !4
  %54 = load ptr, ptr %8, align 8, !tbaa !20
  %55 = call noundef i32 @_Z9luaH_getnP8LuaTable(ptr noundef %54)
  %56 = sitofp i32 %55 to double
  %57 = load ptr, ptr %9, align 8, !tbaa !4
  %58 = getelementptr inbounds nuw %struct.lua_TValue, ptr %57, i32 0, i32 0
  store double %56, ptr %58, align 8, !tbaa !12
  %59 = load ptr, ptr %9, align 8, !tbaa !4
  %60 = getelementptr inbounds nuw %struct.lua_TValue, ptr %59, i32 0, i32 2
  store i32 3, ptr %60, align 4, !tbaa !9
  call void @llvm.lifetime.end.p0(i64 8, ptr %9) #11
  store i32 1, ptr %10, align 4
  br label %62

61:                                               ; preds = %49
  store i32 2, ptr %10, align 4
  br label %62

62:                                               ; preds = %61, %52
  call void @llvm.lifetime.end.p0(i64 8, ptr %8) #11
  %63 = load i32, ptr %10, align 4
  switch i32 %63, label %102 [
    i32 2, label %81
  ]

64:                                               ; preds = %3
  call void @llvm.lifetime.start.p0(i64 8, ptr %11) #11
  %65 = load ptr, ptr %6, align 8, !tbaa !4
  %66 = getelementptr inbounds nuw %struct.lua_TValue, ptr %65, i32 0, i32 0
  %67 = load ptr, ptr %66, align 8, !tbaa !12
  store ptr %67, ptr %11, align 8, !tbaa !37
  call void @llvm.lifetime.start.p0(i64 8, ptr %12) #11
  %68 = load ptr, ptr %5, align 8, !tbaa !4
  store ptr %68, ptr %12, align 8, !tbaa !4
  %69 = load ptr, ptr %11, align 8, !tbaa !37
  %70 = getelementptr inbounds nuw %struct.TString, ptr %69, i32 0, i32 6
  %71 = load i32, ptr %70, align 4, !tbaa !48
  %72 = uitofp i32 %71 to double
  %73 = load ptr, ptr %12, align 8, !tbaa !4
  %74 = getelementptr inbounds nuw %struct.lua_TValue, ptr %73, i32 0, i32 0
  store double %72, ptr %74, align 8, !tbaa !12
  %75 = load ptr, ptr %12, align 8, !tbaa !4
  %76 = getelementptr inbounds nuw %struct.lua_TValue, ptr %75, i32 0, i32 2
  store i32 3, ptr %76, align 4, !tbaa !9
  call void @llvm.lifetime.end.p0(i64 8, ptr %12) #11
  store i32 1, ptr %10, align 4
  call void @llvm.lifetime.end.p0(i64 8, ptr %11) #11
  br label %102

77:                                               ; preds = %3
  %78 = load ptr, ptr %4, align 8, !tbaa !15
  %79 = load ptr, ptr %6, align 8, !tbaa !4
  %80 = call noundef ptr @_Z15luaT_gettmbyobjP9lua_StatePK10lua_TValue3TMS(ptr noundef %78, ptr noundef %79, i32 noundef 6)
  store ptr %80, ptr %7, align 8, !tbaa !4
  br label %81

81:                                               ; preds = %77, %62
  %82 = load ptr, ptr %7, align 8, !tbaa !4
  %83 = getelementptr inbounds nuw %struct.lua_TValue, ptr %82, i32 0, i32 2
  %84 = load i32, ptr %83, align 4, !tbaa !9
  %85 = icmp eq i32 %84, 0
  br i1 %85, label %86, label %89

86:                                               ; preds = %81
  %87 = load ptr, ptr %4, align 8, !tbaa !15
  %88 = load ptr, ptr %6, align 8, !tbaa !4
  call void @_Z15luaG_typeerrorLP9lua_StatePK10lua_TValuePKc(ptr noundef %87, ptr noundef %88, ptr noundef @.str.3) #12
  unreachable

89:                                               ; preds = %81
  call void @llvm.lifetime.start.p0(i64 8, ptr %13) #11
  %90 = load ptr, ptr %4, align 8, !tbaa !15
  %91 = load ptr, ptr %5, align 8, !tbaa !4
  %92 = load ptr, ptr %7, align 8, !tbaa !4
  %93 = load ptr, ptr %6, align 8, !tbaa !4
  %94 = call noundef ptr @_ZL9callTMresP9lua_StateP10lua_TValuePKS1_S4_S4_(ptr noundef %90, ptr noundef %91, ptr noundef %92, ptr noundef %93, ptr noundef @luaO_nilobject_)
  store ptr %94, ptr %13, align 8, !tbaa !4
  %95 = load ptr, ptr %13, align 8, !tbaa !4
  %96 = getelementptr inbounds nuw %struct.lua_TValue, ptr %95, i32 0, i32 2
  %97 = load i32, ptr %96, align 4, !tbaa !9
  %98 = icmp eq i32 %97, 3
  br i1 %98, label %101, label %99

99:                                               ; preds = %89
  %100 = load ptr, ptr %4, align 8, !tbaa !15
  call void (ptr, ptr, ...) @_Z14luaG_runerrorLP9lua_StatePKcz(ptr noundef %100, ptr noundef @.str.4) #12
  unreachable

101:                                              ; preds = %89
  call void @llvm.lifetime.end.p0(i64 8, ptr %13) #11
  store i32 0, ptr %10, align 4
  br label %102

102:                                              ; preds = %101, %64, %62
  call void @llvm.lifetime.end.p0(i64 8, ptr %7) #11
  %103 = load i32, ptr %10, align 4
  switch i32 %103, label %105 [
    i32 0, label %104
    i32 1, label %104
  ]

104:                                              ; preds = %102, %102
  ret void

105:                                              ; preds = %102
  unreachable
}