; Function Attrs: mustprogress uwtable
define hidden void @_Z10luaV_dolenP9lua_StateP10lua_TValuePKS1_(ptr noundef %0, ptr noundef %1, ptr noundef %2) local_unnamed_addr #0 {
  %4 = getelementptr inbounds nuw i8, ptr %2, i64 12
  %5 = load i32, ptr %4, align 4, !tbaa !4
  switch i32 %5, label %28 [
    i32 6, label %6
    i32 5, label %23
  ]

6:                                                ; preds = %3
  %7 = load ptr, ptr %2, align 8, !tbaa !9
  %8 = getelementptr inbounds nuw i8, ptr %7, i64 16
  %9 = load ptr, ptr %8, align 8, !tbaa !29
  %10 = icmp eq ptr %9, null
  br i1 %10, label %.thread, label %11

11:                                               ; preds = %6
  %12 = getelementptr inbounds nuw i8, ptr %9, i64 3
  %13 = load i8, ptr %12, align 1, !tbaa !30
  %14 = and i8 %13, 64
  %.not = icmp eq i8 %14, 0
  br i1 %.not, label %15, label %.thread

15:                                               ; preds = %11
  %16 = getelementptr inbounds nuw i8, ptr %0, i64 24
  %17 = load ptr, ptr %16, align 8, !tbaa !31
  %18 = getelementptr inbounds nuw i8, ptr %17, i64 3080
  %19 = load ptr, ptr %18, align 8, !tbaa !32
  %20 = tail call noundef ptr @_Z10luaT_gettmP8LuaTable3TMSP7TString(ptr noundef nonnull %9, i32 noundef 6, ptr noundef %19)
  %.not28 = icmp eq ptr %20, null
  br i1 %.not28, label %.thread, label %.critedge

.thread:                                          ; preds = %11, %6, %15
  %21 = tail call noundef i32 @_Z9luaH_getnP8LuaTable(ptr noundef nonnull %7)
  %22 = sitofp i32 %21 to double
  br label %.sink.split

23:                                               ; preds = %3
  %24 = load ptr, ptr %2, align 8, !tbaa !9
  %25 = getelementptr inbounds nuw i8, ptr %24, i64 20
  %26 = load i32, ptr %25, align 4, !tbaa !40
  %27 = uitofp i32 %26 to double
  br label %.sink.split

28:                                               ; preds = %3
  %29 = tail call noundef ptr @_Z15luaT_gettmbyobjP9lua_StatePK10lua_TValue3TMS(ptr noundef %0, ptr noundef nonnull %2, i32 noundef 6)
  br label %.critedge

.critedge:                                        ; preds = %15, %28
  %.0 = phi ptr [ %29, %28 ], [ %20, %15 ]
  %30 = getelementptr inbounds nuw i8, ptr %.0, i64 12
  %31 = load i32, ptr %30, align 4, !tbaa !4
  %32 = icmp eq i32 %31, 0
  br i1 %32, label %33, label %34

33:                                               ; preds = %.critedge
  tail call void @_Z15luaG_typeerrorLP9lua_StatePK10lua_TValuePKc(ptr noundef %0, ptr noundef nonnull %2, ptr noundef nonnull @.str.3) #12
  unreachable

34:                                               ; preds = %.critedge
  %35 = getelementptr inbounds nuw i8, ptr %0, i64 48
  %36 = load ptr, ptr %35, align 8, !tbaa !35
  %37 = getelementptr inbounds nuw i8, ptr %0, i64 8
  %38 = load ptr, ptr %37, align 8, !tbaa !36
  tail call void @llvm.memcpy.p0.p0.i64(ptr noundef nonnull align 8 dereferenceable(16) %38, ptr noundef nonnull readonly align 8 dereferenceable(16) %.0, i64 16, i1 false), !tbaa.struct !33
  %39 = load ptr, ptr %37, align 8, !tbaa !36
  %40 = getelementptr inbounds nuw i8, ptr %39, i64 16
  tail call void @llvm.memcpy.p0.p0.i64(ptr noundef nonnull align 8 dereferenceable(16) %40, ptr noundef nonnull readonly align 8 dereferenceable(16) %2, i64 16, i1 false), !tbaa.struct !33
  %41 = load ptr, ptr %37, align 8, !tbaa !36
  %42 = getelementptr inbounds nuw i8, ptr %41, i64 32
  tail call void @llvm.memcpy.p0.p0.i64(ptr noundef nonnull align 8 dereferenceable(16) %42, ptr noundef nonnull align 8 dereferenceable(16) @luaO_nilobject_, i64 16, i1 false), !tbaa.struct !33
  %43 = getelementptr inbounds nuw i8, ptr %0, i64 40
  %44 = load ptr, ptr %43, align 8, !tbaa !37
  %45 = load ptr, ptr %37, align 8, !tbaa !36
  %46 = ptrtoint ptr %44 to i64
  %47 = ptrtoint ptr %45 to i64
  %48 = sub i64 %46, %47
  %49 = icmp slt i64 %48, 49
  br i1 %49, label %50, label %_ZL9callTMresP9lua_StateP10lua_TValuePKS1_S4_S4_.exit

50:                                               ; preds = %34
  tail call void @_Z14luaD_growstackP9lua_Statei(ptr noundef nonnull %0, i32 noundef 3)
  %.pre.i = load ptr, ptr %37, align 8, !tbaa !36
  br label %_ZL9callTMresP9lua_StateP10lua_TValuePKS1_S4_S4_.exit

_ZL9callTMresP9lua_StateP10lua_TValuePKS1_S4_S4_.exit: ; preds = %34, %50
  %51 = phi ptr [ %45, %34 ], [ %.pre.i, %50 ]
  %52 = ptrtoint ptr %1 to i64
  %53 = ptrtoint ptr %36 to i64
  %54 = sub i64 %52, %53
  %55 = getelementptr inbounds nuw i8, ptr %51, i64 48
  store ptr %55, ptr %37, align 8, !tbaa !36
  tail call void @_Z9luaD_callP9lua_StateP10lua_TValuei(ptr noundef nonnull %0, ptr noundef %51, i32 noundef 1)
  %56 = load ptr, ptr %35, align 8, !tbaa !35
  %57 = getelementptr inbounds i8, ptr %56, i64 %54
  %58 = load ptr, ptr %37, align 8, !tbaa !36
  %59 = getelementptr inbounds i8, ptr %58, i64 -16
  store ptr %59, ptr %37, align 8, !tbaa !36
  tail call void @llvm.memcpy.p0.p0.i64(ptr noundef nonnull align 8 dereferenceable(16) %57, ptr noundef nonnull align 8 dereferenceable(16) %59, i64 16, i1 false), !tbaa.struct !33
  %60 = getelementptr inbounds nuw i8, ptr %57, i64 12
  %61 = load i32, ptr %60, align 4, !tbaa !4
  %62 = icmp eq i32 %61, 3
  br i1 %62, label %65, label %63

63:                                               ; preds = %_ZL9callTMresP9lua_StateP10lua_TValuePKS1_S4_S4_.exit
  tail call void (ptr, ptr, ...) @_Z14luaG_runerrorLP9lua_StatePKcz(ptr noundef nonnull %0, ptr noundef nonnull @.str.4) #12
  unreachable

.sink.split:                                      ; preds = %23, %.thread
  %.sink = phi double [ %22, %.thread ], [ %27, %23 ]
  store double %.sink, ptr %1, align 8, !tbaa !9
  %64 = getelementptr inbounds nuw i8, ptr %1, i64 12
  store i32 3, ptr %64, align 4, !tbaa !4
  br label %65

65:                                               ; preds = %.sink.split, %_ZL9callTMresP9lua_StateP10lua_TValuePKS1_S4_S4_.exit
  ret void
}